target datalayout = "e-m:e-p270:32:32-p271:32:32-p272:64:64-i64:64-i128:128-f80:128-n8:16:32:64-S128"
target triple = "x86_64-pc-linux-gnu"

%struct.ggml_tensor = type { i32, ptr, [4 x i64], [4 x i64], i32, [16 x i32], i32, [10 x ptr], ptr, i64, ptr, [64 x i8], ptr, [8 x i8] }
%struct.block_iq4_nl = type { i16, [16 x i8] }
%struct.block_iq4_nlx4 = type { [4 x i16], [64 x i8] }

@.str = private unnamed_addr constant [136 x i8] c"generated/home/dtcxzyw/WorkSpace/Projects/compilers/llvm-opt-benchmark/bench/llama.cpp/llama.cpp/ggml/src/ggml-cpu/ggml-cpu-aarch64.cpp\00", align 1
@.str.1 = private unnamed_addr constant [23 x i8] c"GGML_ASSERT(%s) failed\00", align 1
@.str.5 = private unnamed_addr constant [6 x i8] c"false\00", align 1
@.str.7 = private unnamed_addr constant [28 x i8] c"t->type == GGML_TYPE_IQ4_NL\00", align 1
@.str.8 = private unnamed_addr constant [22 x i8] c"interleave_block == 4\00", align 1
@.str.9 = private unnamed_addr constant [51 x i8] c"data_size == nrow * nblocks * sizeof(block_iq4_nl)\00", align 1

; Function Attrs: mustprogress uwtable
define internal void @_ZL19make_block_iq4_nlx4P12block_iq4_nlj(ptr dead_on_unwind noalias writable sret(%struct.block_iq4_nlx4) align 2 %0, ptr noundef %1, i32 noundef %2) #0 {
  %4 = alloca ptr, align 8
  %5 = alloca i32, align 4
  %6 = alloca i32, align 4
  %7 = alloca i32, align 4
  %8 = alloca i32, align 4
  %9 = alloca i32, align 4
  %10 = alloca i32, align 4
  %11 = alloca i32, align 4
  store ptr %1, ptr %4, align 8, !tbaa !9
  store i32 %2, ptr %5, align 4, !tbaa !12
  call void @llvm.lifetime.start.p0(i64 4, ptr %6) #23
  store i32 0, ptr %6, align 4, !tbaa !12
  br label %12

12:                                               ; preds = %27, %3
  %13 = load i32, ptr %6, align 4, !tbaa !12
  %14 = icmp slt i32 %13, 4
  br i1 %14, label %16, label %15

15:                                               ; preds = %12
  call void @llvm.lifetime.end.p0(i64 4, ptr %6) #23
  br label %30

16:                                               ; preds = %12
  %17 = load ptr, ptr %4, align 8, !tbaa !9
  %18 = load i32, ptr %6, align 4, !tbaa !12
  %19 = sext i32 %18 to i64
  %20 = getelementptr inbounds %struct.block_iq4_nl, ptr %17, i64 %19
  %21 = getelementptr inbounds nuw %struct.block_iq4_nl, ptr %20, i32 0, i32 0
  %22 = load i16, ptr %21, align 2, !tbaa !49
  %23 = getelementptr inbounds nuw %struct.block_iq4_nlx4, ptr %0, i32 0, i32 0
  %24 = load i32, ptr %6, align 4, !tbaa !12
  %25 = sext i32 %24 to i64
  %26 = getelementptr inbounds [4 x i16], ptr %23, i64 0, i64 %25
  store i16 %22, ptr %26, align 2, !tbaa !23
  br label %27

27:                                               ; preds = %16
  %28 = load i32, ptr %6, align 4, !tbaa !12
  %29 = add nsw i32 %28, 1
  store i32 %29, ptr %6, align 4, !tbaa !12
  br label %12, !llvm.loop !51

30:                                               ; preds = %15
  call void @llvm.lifetime.start.p0(i64 4, ptr %7) #23
  %31 = load i32, ptr %5, align 4, !tbaa !12
  %32 = udiv i32 64, %31
  store i32 %32, ptr %7, align 4, !tbaa !12
  %33 = load i32, ptr %5, align 4, !tbaa !12
  %34 = icmp eq i32 %33, 4
  br i1 %34, label %35, label %67

35:                                               ; preds = %30
  call void @llvm.lifetime.start.p0(i64 4, ptr %8) #23
  store i32 0, ptr %8, align 4, !tbaa !12
  br label %36

36:                                               ; preds = %63, %35
  %37 = load i32, ptr %8, align 4, !tbaa !12
  %38 = load i32, ptr %7, align 4, !tbaa !12
  %39 = icmp slt i32 %37, %38
  br i1 %39, label %41, label %40

40:                                               ; preds = %36
  call void @llvm.lifetime.end.p0(i64 4, ptr %8) #23
  br label %66

41:                                               ; preds = %36
  call void @llvm.lifetime.start.p0(i64 4, ptr %9) #23
  %42 = load i32, ptr %8, align 4, !tbaa !12
  %43 = srem i32 %42, 4
  store i32 %43, ptr %9, align 4, !tbaa !12
  call void @llvm.lifetime.start.p0(i64 4, ptr %10) #23
  %44 = load i32, ptr %8, align 4, !tbaa !12
  %45 = sdiv i32 %44, 4
  %46 = load i32, ptr %5, align 4, !tbaa !12
  %47 = mul i32 %45, %46
  store i32 %47, ptr %10, align 4, !tbaa !12
  call void @llvm.lifetime.start.p0(i64 4, ptr %11) #23
  %48 = load i32, ptr %8, align 4, !tbaa !12
  %49 = load i32, ptr %5, align 4, !tbaa !12
  %50 = mul i32 %48, %49
  store i32 %50, ptr %11, align 4, !tbaa !12
  %51 = getelementptr inbounds nuw %struct.block_iq4_nlx4, ptr %0, i32 0, i32 1
  %52 = load i32, ptr %11, align 4, !tbaa !12
  %53 = sext i32 %52 to i64
  %54 = getelementptr inbounds [64 x i8], ptr %51, i64 0, i64 %53
  %55 = load ptr, ptr %4, align 8, !tbaa !9
  %56 = load i32, ptr %9, align 4, !tbaa !12
  %57 = sext i32 %56 to i64
  %58 = getelementptr inbounds %struct.block_iq4_nl, ptr %55, i64 %57
  %59 = getelementptr inbounds nuw %struct.block_iq4_nl, ptr %58, i32 0, i32 1
  %60 = load i32, ptr %10, align 4, !tbaa !12
  %61 = sext i32 %60 to i64
  %62 = getelementptr inbounds [16 x i8], ptr %59, i64 0, i64 %61
  call void @llvm.memcpy.p0.p0.i64(ptr align 1 %54, ptr align 1 %62, i64 4, i1 false)
  call void @llvm.lifetime.end.p0(i64 4, ptr %11) #23
  call void @llvm.lifetime.end.p0(i64 4, ptr %10) #23
  call void @llvm.lifetime.end.p0(i64 4, ptr %9) #23
  br label %63

63:                                               ; preds = %41
  %64 = load i32, ptr %8, align 4, !tbaa !12
  %65 = add nsw i32 %64, 1
  store i32 %65, ptr %8, align 4, !tbaa !12
  br label %36, !llvm.loop !52

66:                                               ; preds = %40
  br label %68

67:                                               ; preds = %30
  call void (ptr, i32, ptr, ...) @ggml_abort(ptr noundef @.str, i32 noundef 3754, ptr noundef @.str.1, ptr noundef @.str.5) #29
  unreachable

68:                                               ; preds = %66
  call void @llvm.lifetime.end.p0(i64 4, ptr %7) #23
  ret void
}

; Function Attrs: mustprogress uwtable
define internal noundef i32 @_ZL28repack_iq4_nl_to_iq4_nl_4_blP11ggml_tensoriPKvm(ptr noundef %0, i32 noundef %1, ptr noalias noundef %2, i64 noundef %3) #0 {
  %5 = alloca i32, align 4
  %6 = alloca ptr, align 8
  %7 = alloca i32, align 4
  %8 = alloca ptr, align 8
  %9 = alloca i64, align 8
  %10 = alloca ptr, align 8
  %11 = alloca ptr, align 8
  %12 = alloca [4 x %struct.block_iq4_nl], align 16
  %13 = alloca i32, align 4
  %14 = alloca i32, align 4
  %15 = alloca i32, align 4
  %16 = alloca i32, align 4
  %17 = alloca i32, align 4
  %18 = alloca i64, align 8
  %19 = alloca i32, align 4
  %20 = alloca %struct.block_iq4_nlx4, align 2
  store ptr %0, ptr %6, align 8, !tbaa !4
  store i32 %1, ptr %7, align 4, !tbaa !12
  store ptr %2, ptr %8, align 8, !tbaa !9
  store i64 %3, ptr %9, align 8, !tbaa !10
  %21 = load ptr, ptr %6, align 8, !tbaa !4
  %22 = getelementptr inbounds nuw %struct.ggml_tensor, ptr %21, i32 0, i32 0
  %23 = load i32, ptr %22, align 8, !tbaa !14
  %24 = icmp eq i32 %23, 20
  br i1 %24, label %26, label %25

25:                                               ; preds = %4
  call void (ptr, i32, ptr, ...) @ggml_abort(ptr noundef @.str, i32 noundef 3761, ptr noundef @.str.1, ptr noundef @.str.7) #29
  unreachable

26:                                               ; preds = %4
  %27 = load i32, ptr %7, align 4, !tbaa !12
  %28 = icmp eq i32 %27, 4
  br i1 %28, label %30, label %29

29:                                               ; preds = %26
  call void (ptr, i32, ptr, ...) @ggml_abort(ptr noundef @.str, i32 noundef 3763, ptr noundef @.str.1, ptr noundef @.str.8) #29
  unreachable

30:                                               ; preds = %26
  call void @llvm.lifetime.start.p0(i64 8, ptr %10) #23
  %31 = load ptr, ptr %6, align 8, !tbaa !4
  %32 = getelementptr inbounds nuw %struct.ggml_tensor, ptr %31, i32 0, i32 10
  %33 = load ptr, ptr %32, align 8, !tbaa !19
  store ptr %33, ptr %10, align 8, !tbaa !44
  call void @llvm.lifetime.start.p0(i64 8, ptr %11) #23
  %34 = load ptr, ptr %8, align 8, !tbaa !9
  store ptr %34, ptr %11, align 8, !tbaa !9
  call void @llvm.lifetime.start.p0(i64 72, ptr %12) #23
  call void @llvm.lifetime.start.p0(i64 4, ptr %13) #23
  %35 = load ptr, ptr %6, align 8, !tbaa !4
  %36 = call i64 @ggml_nrows(ptr noundef %35)
  %37 = trunc i64 %36 to i32
  store i32 %37, ptr %13, align 4, !tbaa !12
  call void @llvm.lifetime.start.p0(i64 4, ptr %14) #23
  store i32 4, ptr %14, align 4, !tbaa !12
  call void @llvm.lifetime.start.p0(i64 4, ptr %15) #23
  %38 = load ptr, ptr %6, align 8, !tbaa !4
  %39 = getelementptr inbounds nuw %struct.ggml_tensor, ptr %38, i32 0, i32 2
  %40 = getelementptr inbounds [4 x i64], ptr %39, i64 0, i64 0
  %41 = load i64, ptr %40, align 8, !tbaa !10
  %42 = sdiv i64 %41, 32
  %43 = trunc i64 %42 to i32
  store i32 %43, ptr %15, align 4, !tbaa !12
  %44 = load i64, ptr %9, align 8, !tbaa !10
  %45 = load i32, ptr %13, align 4, !tbaa !12
  %46 = load i32, ptr %15, align 4, !tbaa !12
  %47 = mul nsw i32 %45, %46
  %48 = sext i32 %47 to i64
  %49 = mul i64 %48, 18
  %50 = icmp eq i64 %44, %49
  br i1 %50, label %52, label %51

51:                                               ; preds = %30
  call void (ptr, i32, ptr, ...) @ggml_abort(ptr noundef @.str, i32 noundef 3772, ptr noundef @.str.1, ptr noundef @.str.9) #29
  unreachable

52:                                               ; preds = %30
  %53 = load ptr, ptr %6, align 8, !tbaa !4
  %54 = getelementptr inbounds nuw %struct.ggml_tensor, ptr %53, i32 0, i32 2
  %55 = getelementptr inbounds [4 x i64], ptr %54, i64 0, i64 1
  %56 = load i64, ptr %55, align 8, !tbaa !10
  %57 = load i32, ptr %14, align 4, !tbaa !12
  %58 = sext i32 %57 to i64
  %59 = srem i64 %56, %58
  %60 = icmp ne i64 %59, 0
  br i1 %60, label %68, label %61

61:                                               ; preds = %52
  %62 = load ptr, ptr %6, align 8, !tbaa !4
  %63 = getelementptr inbounds nuw %struct.ggml_tensor, ptr %62, i32 0, i32 2
  %64 = getelementptr inbounds [4 x i64], ptr %63, i64 0, i64 0
  %65 = load i64, ptr %64, align 8, !tbaa !10
  %66 = srem i64 %65, 8
  %67 = icmp ne i64 %66, 0
  br i1 %67, label %68, label %69

68:                                               ; preds = %61, %52
  store i32 -1, ptr %5, align 4
  store i32 1, ptr %16, align 4
  br label %123

69:                                               ; preds = %61
  call void @llvm.lifetime.start.p0(i64 4, ptr %17) #23
  store i32 0, ptr %17, align 4, !tbaa !12
  br label %70

70:                                               ; preds = %118, %69
  %71 = load i32, ptr %17, align 4, !tbaa !12
  %72 = load i32, ptr %13, align 4, !tbaa !12
  %73 = icmp slt i32 %71, %72
  br i1 %73, label %75, label %74

74:                                               ; preds = %70
  store i32 2, ptr %16, align 4
  call void @llvm.lifetime.end.p0(i64 4, ptr %17) #23
  br label %122

75:                                               ; preds = %70
  call void @llvm.lifetime.start.p0(i64 8, ptr %18) #23
  store i64 0, ptr %18, align 8, !tbaa !10
  br label %76

76:                                               ; preds = %108, %75
  %77 = load i64, ptr %18, align 8, !tbaa !10
  %78 = load i32, ptr %15, align 4, !tbaa !12
  %79 = sext i32 %78 to i64
  %80 = icmp slt i64 %77, %79
  br i1 %80, label %82, label %81

81:                                               ; preds = %76
  store i32 5, ptr %16, align 4
  call void @llvm.lifetime.end.p0(i64 8, ptr %18) #23
  br label %111

82:                                               ; preds = %76
  call void @llvm.lifetime.start.p0(i64 4, ptr %19) #23
  store i32 0, ptr %19, align 4, !tbaa !12
  br label %83

83:                                               ; preds = %100, %82
  %84 = load i32, ptr %19, align 4, !tbaa !12
  %85 = load i32, ptr %14, align 4, !tbaa !12
  %86 = icmp slt i32 %84, %85
  br i1 %86, label %88, label %87

87:                                               ; preds = %83
  store i32 8, ptr %16, align 4
  call void @llvm.lifetime.end.p0(i64 4, ptr %19) #23
  br label %103

88:                                               ; preds = %83
  %89 = load ptr, ptr %11, align 8, !tbaa !9
  %90 = load i64, ptr %18, align 8, !tbaa !10
  %91 = load i32, ptr %19, align 4, !tbaa !12
  %92 = load i32, ptr %15, align 4, !tbaa !12
  %93 = mul nsw i32 %91, %92
  %94 = sext i32 %93 to i64
  %95 = add nsw i64 %90, %94
  %96 = getelementptr inbounds %struct.block_iq4_nl, ptr %89, i64 %95
  %97 = load i32, ptr %19, align 4, !tbaa !12
  %98 = sext i32 %97 to i64
  %99 = getelementptr inbounds [4 x %struct.block_iq4_nl], ptr %12, i64 0, i64 %98
  call void @llvm.memcpy.p0.p0.i64(ptr align 2 %99, ptr align 2 %96, i64 18, i1 false), !tbaa.struct !22
  br label %100

100:                                              ; preds = %88
  %101 = load i32, ptr %19, align 4, !tbaa !12
  %102 = add nsw i32 %101, 1
  store i32 %102, ptr %19, align 4, !tbaa !12
  br label %83, !llvm.loop !46

103:                                              ; preds = %87
  call void @llvm.lifetime.start.p0(i64 72, ptr %20) #23
  %104 = getelementptr inbounds [4 x %struct.block_iq4_nl], ptr %12, i64 0, i64 0
  %105 = load i32, ptr %7, align 4, !tbaa !12
  call void @_ZL19make_block_iq4_nlx4P12block_iq4_nlj(ptr dead_on_unwind writable sret(%struct.block_iq4_nlx4) align 2 %20, ptr noundef %104, i32 noundef %105)
  %106 = load ptr, ptr %10, align 8, !tbaa !44
  %107 = getelementptr inbounds nuw %struct.block_iq4_nlx4, ptr %106, i32 1
  store ptr %107, ptr %10, align 8, !tbaa !44
  call void @llvm.memcpy.p0.p0.i64(ptr align 2 %106, ptr align 2 %20, i64 72, i1 false), !tbaa.struct !28
  call void @llvm.lifetime.end.p0(i64 72, ptr %20) #23
  br label %108

108:                                              ; preds = %103
  %109 = load i64, ptr %18, align 8, !tbaa !10
  %110 = add nsw i64 %109, 1
  store i64 %110, ptr %18, align 8, !tbaa !10
  br label %76, !llvm.loop !47

111:                                              ; preds = %81
  %112 = load i32, ptr %14, align 4, !tbaa !12
  %113 = load i32, ptr %15, align 4, !tbaa !12
  %114 = mul nsw i32 %112, %113
  %115 = load ptr, ptr %11, align 8, !tbaa !9
  %116 = sext i32 %114 to i64
  %117 = getelementptr inbounds %struct.block_iq4_nl, ptr %115, i64 %116
  store ptr %117, ptr %11, align 8, !tbaa !9
  br label %118

118:                                              ; preds = %111
  %119 = load i32, ptr %14, align 4, !tbaa !12
  %120 = load i32, ptr %17, align 4, !tbaa !12
  %121 = add nsw i32 %120, %119
  store i32 %121, ptr %17, align 4, !tbaa !12
  br label %70, !llvm.loop !48

122:                                              ; preds = %74
  store i32 0, ptr %5, align 4
  store i32 1, ptr %16, align 4
  br label %123

123:                                              ; preds = %122, %68
  call void @llvm.lifetime.end.p0(i64 4, ptr %15) #23
  call void @llvm.lifetime.end.p0(i64 4, ptr %14) #23
  call void @llvm.lifetime.end.p0(i64 4, ptr %13) #23
  call void @llvm.lifetime.end.p0(i64 72, ptr %12) #23
  call void @llvm.lifetime.end.p0(i64 8, ptr %11) #23
  call void @llvm.lifetime.end.p0(i64 8, ptr %10) #23
  %124 = load i32, ptr %5, align 4
  ret i32 %124
}

; Function Attrs: mustprogress uwtable
define noundef i32 @_ZN4ggml3cpu7aarch646repackI12block_iq4_nlLl4ELl4EEEiP11ggml_tensorPKvm(ptr noundef %0, ptr noundef %1, i64 noundef %2) #0 {
  %4 = alloca ptr, align 8
  %5 = alloca ptr, align 8
  %6 = alloca i64, align 8
  store ptr %0, ptr %4, align 8, !tbaa !4
  store ptr %1, ptr %5, align 8, !tbaa !9
  store i64 %2, ptr %6, align 8, !tbaa !10
  %7 = load ptr, ptr %4, align 8, !tbaa !4
  %8 = load ptr, ptr %5, align 8, !tbaa !9
  %9 = load i64, ptr %6, align 8, !tbaa !10
  %10 = call noundef i32 @_ZL28repack_iq4_nl_to_iq4_nl_4_blP11ggml_tensoriPKvm(ptr noundef %7, i32 noundef 4, ptr noundef %8, i64 noundef %9)
  ret i32 %10
}