; Function Attrs: mustprogress uwtable
define noundef range(i32 -1, 1) i32 @_ZN4ggml3cpu7aarch646repackI12block_iq4_nlLl4ELl4EEEiP11ggml_tensorPKvm(ptr noundef %0, ptr noundef readonly captures(none) %1, i64 noundef %2) local_unnamed_addr #0 {
  %4 = alloca [4 x %struct.block_iq4_nl], align 16
  %5 = alloca %struct.block_iq4_nlx4, align 2
  %6 = load i32, ptr %0, align 8, !tbaa !4, !noalias !47
  %7 = icmp eq i32 %6, 20
  br i1 %7, label %9, label %8

8:                                                ; preds = %3
  tail call void (ptr, i32, ptr, ...) @ggml_abort(ptr noundef nonnull @.str, i32 noundef 3761, ptr noundef nonnull @.str.1, ptr noundef nonnull @.str.7) #22, !noalias !47
  unreachable

9:                                                ; preds = %3
  %10 = getelementptr inbounds nuw i8, ptr %0, i64 248
  %11 = load ptr, ptr %10, align 8, !tbaa !15, !noalias !47
  call void @llvm.lifetime.start.p0(i64 72, ptr nonnull %4) #23, !noalias !47
  %12 = tail call i64 @ggml_nrows(ptr noundef nonnull %0), !noalias !47
  %13 = trunc i64 %12 to i32
  %14 = getelementptr inbounds nuw i8, ptr %0, i64 16
  %15 = load i64, ptr %14, align 8, !tbaa !16, !noalias !47
  %16 = sdiv i64 %15, 32
  %17 = trunc i64 %16 to i32
  %18 = shl i64 %12, 32
  %sext.i = mul i64 %18, %16
  %19 = ashr exact i64 %sext.i, 32
  %20 = mul nsw i64 %19, 18
  %21 = icmp eq i64 %2, %20
  br i1 %21, label %23, label %22

22:                                               ; preds = %9
  tail call void (ptr, i32, ptr, ...) @ggml_abort(ptr noundef nonnull @.str, i32 noundef 3772, ptr noundef nonnull @.str.1, ptr noundef nonnull @.str.9) #22, !noalias !47
  unreachable

23:                                               ; preds = %9
  %24 = getelementptr inbounds nuw i8, ptr %0, i64 24
  %25 = load i64, ptr %24, align 8, !tbaa !16, !noalias !47
  %26 = and i64 %25, 3
  %27 = and i64 %15, 7
  %28 = or i64 %26, %27
  %or.cond.i = icmp eq i64 %28, 0
  br i1 %or.cond.i, label %.preheader41.i, label %_ZL28repack_iq4_nl_to_iq4_nl_4_blP11ggml_tensoriPKvm.exit

.preheader41.i:                                   ; preds = %23
  %29 = icmp sgt i32 %13, 0
  br i1 %29, label %.preheader40.lr.ph.i, label %_ZL28repack_iq4_nl_to_iq4_nl_4_blP11ggml_tensoriPKvm.exit

.preheader40.lr.ph.i:                             ; preds = %.preheader41.i
  %sext39.i = shl i64 %16, 32
  %30 = ashr exact i64 %sext39.i, 32
  %31 = icmp sgt i64 %30, 0
  %32 = getelementptr inbounds nuw i8, ptr %5, i64 8
  %33 = shl nsw i32 %17, 2
  %34 = sext i32 %33 to i64
  br i1 %31, label %.preheader40.us.i, label %_ZL28repack_iq4_nl_to_iq4_nl_4_blP11ggml_tensoriPKvm.exit

.preheader40.us.i:                                ; preds = %.preheader40.lr.ph.i, %._crit_edge.us.i
  %.03347.us.i = phi i32 [ %54, %._crit_edge.us.i ], [ 0, %.preheader40.lr.ph.i ]
  %.03546.us.i = phi ptr [ %46, %._crit_edge.us.i ], [ %11, %.preheader40.lr.ph.i ]
  %.03645.us.i = phi ptr [ %53, %._crit_edge.us.i ], [ %1, %.preheader40.lr.ph.i ]
  br label %.preheader.us.i

35:                                               ; preds = %48
  call void @llvm.lifetime.start.p0(i64 72, ptr nonnull %5) #23, !noalias !47
  tail call void @llvm.experimental.noalias.scope.decl(metadata !50)
  br label %36

36:                                               ; preds = %36, %35
  %indvars.iv.i.us.i = phi i64 [ 0, %35 ], [ %indvars.iv.next.i.us.i, %36 ]
  %37 = getelementptr inbounds nuw %struct.block_iq4_nl, ptr %4, i64 %indvars.iv.i.us.i
  %38 = load i16, ptr %37, align 2, !tbaa !53, !noalias !55
  %39 = getelementptr inbounds nuw [4 x i16], ptr %5, i64 0, i64 %indvars.iv.i.us.i
  store i16 %38, ptr %39, align 2, !tbaa !23, !alias.scope !50, !noalias !47
  %indvars.iv.next.i.us.i = add nuw nsw i64 %indvars.iv.i.us.i, 1
  %exitcond.not.i.us.i = icmp eq i64 %indvars.iv.next.i.us.i, 4
  br i1 %exitcond.not.i.us.i, label %.preheader.i.us.i, label %36, !llvm.loop !56

.preheader.i.us.i:                                ; preds = %36, %.preheader.i.us.i
  %indvars.iv23.i.us.i = phi i64 [ %indvars.iv.next24.i.us.i, %.preheader.i.us.i ], [ 0, %36 ]
  %40 = and i64 %indvars.iv23.i.us.i, 3
  %41 = and i64 %indvars.iv23.i.us.i, 12
  %42 = shl nuw nsw i64 %indvars.iv23.i.us.i, 2
  %43 = getelementptr inbounds nuw [64 x i8], ptr %32, i64 0, i64 %42
  %44 = getelementptr inbounds nuw %struct.block_iq4_nl, ptr %4, i64 %40, i32 1, i64 %41
  %45 = load i32, ptr %44, align 2, !noalias !55
  store i32 %45, ptr %43, align 2, !alias.scope !50, !noalias !47
  %indvars.iv.next24.i.us.i = add nuw nsw i64 %indvars.iv23.i.us.i, 1
  %exitcond26.not.i.us.i = icmp eq i64 %indvars.iv.next24.i.us.i, 16
  br i1 %exitcond26.not.i.us.i, label %_ZL19make_block_iq4_nlx4P12block_iq4_nlj.exit.us.i, label %.preheader.i.us.i, !llvm.loop !57

_ZL19make_block_iq4_nlx4P12block_iq4_nlj.exit.us.i: ; preds = %.preheader.i.us.i
  %46 = getelementptr inbounds nuw i8, ptr %.143.us.i, i64 72
  call void @llvm.memcpy.p0.p0.i64(ptr noundef nonnull align 2 dereferenceable(72) %.143.us.i, ptr noundef nonnull align 2 dereferenceable(72) %5, i64 72, i1 false), !tbaa.struct !28, !noalias !47
  call void @llvm.lifetime.end.p0(i64 72, ptr nonnull %5) #23, !noalias !47
  %47 = add nuw nsw i64 %.03244.us.i, 1
  %exitcond50.not.i = icmp eq i64 %47, %30
  br i1 %exitcond50.not.i, label %._crit_edge.us.i, label %.preheader.us.i, !llvm.loop !58

48:                                               ; preds = %.preheader.us.i, %48
  %indvars.iv.i = phi i64 [ 0, %.preheader.us.i ], [ %indvars.iv.next.i, %48 ]
  %49 = mul nuw nsw i64 %indvars.iv.i, %30
  %50 = getelementptr %struct.block_iq4_nl, ptr %52, i64 %49
  %51 = getelementptr inbounds nuw [4 x %struct.block_iq4_nl], ptr %4, i64 0, i64 %indvars.iv.i
  call void @llvm.memcpy.p0.p0.i64(ptr noundef nonnull align 2 dereferenceable(18) %51, ptr noundef nonnull align 2 dereferenceable(18) %50, i64 18, i1 false), !tbaa.struct !31
  %indvars.iv.next.i = add nuw nsw i64 %indvars.iv.i, 1
  %exitcond.not.i = icmp eq i64 %indvars.iv.next.i, 4
  br i1 %exitcond.not.i, label %35, label %48, !llvm.loop !59

.preheader.us.i:                                  ; preds = %_ZL19make_block_iq4_nlx4P12block_iq4_nlj.exit.us.i, %.preheader40.us.i
  %.03244.us.i = phi i64 [ 0, %.preheader40.us.i ], [ %47, %_ZL19make_block_iq4_nlx4P12block_iq4_nlj.exit.us.i ]
  %.143.us.i = phi ptr [ %.03546.us.i, %.preheader40.us.i ], [ %46, %_ZL19make_block_iq4_nlx4P12block_iq4_nlj.exit.us.i ]
  %52 = getelementptr %struct.block_iq4_nl, ptr %.03645.us.i, i64 %.03244.us.i
  br label %48

._crit_edge.us.i:                                 ; preds = %_ZL19make_block_iq4_nlx4P12block_iq4_nlj.exit.us.i
  %53 = getelementptr inbounds %struct.block_iq4_nl, ptr %.03645.us.i, i64 %34
  %54 = add nuw nsw i32 %.03347.us.i, 4
  %55 = icmp slt i32 %54, %13
  br i1 %55, label %.preheader40.us.i, label %_ZL28repack_iq4_nl_to_iq4_nl_4_blP11ggml_tensoriPKvm.exit, !llvm.loop !60

_ZL28repack_iq4_nl_to_iq4_nl_4_blP11ggml_tensoriPKvm.exit: ; preds = %._crit_edge.us.i, %23, %.preheader41.i, %.preheader40.lr.ph.i
  %.034.i = phi i32 [ -1, %23 ], [ 0, %.preheader41.i ], [ 0, %.preheader40.lr.ph.i ], [ 0, %._crit_edge.us.i ]
  call void @llvm.lifetime.end.p0(i64 72, ptr nonnull %4) #23, !noalias !47
  ret i32 %.034.i
}